; Function Attrs: nounwind uwtable
define noundef i32 @evbuffer_defer_callbacks(ptr noundef initializes((72, 80)) %0, ptr noundef %1) local_unnamed_addr #1 {
  %3 = getelementptr inbounds nuw i8, ptr %0, i64 56
  %4 = load ptr, ptr %3, align 8
  %.not = icmp eq ptr %4, null
  br i1 %.not, label %8, label %5

5:                                                ; preds = %2
  %6 = load ptr, ptr getelementptr inbounds nuw (i8, ptr @evthread_lock_fns_, i64 24), align 8
  %7 = tail call i32 %6(i32 noundef 0, ptr noundef nonnull %4) #16
  br label %8

8:                                                ; preds = %5, %2
  %9 = getelementptr inbounds nuw i8, ptr %0, i64 72
  store ptr %1, ptr %9, align 8
  %10 = getelementptr inbounds nuw i8, ptr %0, i64 64
  %11 = load i8, ptr %10, align 8
  %12 = or i8 %11, 8
  store i8 %12, ptr %10, align 8
  %13 = getelementptr inbounds nuw i8, ptr %0, i64 88
  %14 = tail call i32 @event_base_get_npriorities(ptr noundef %1) #16
  %15 = sdiv i32 %14, 2
  %16 = trunc i32 %15 to i8
  tail call void @event_deferred_cb_init_(ptr noundef nonnull %13, i8 noundef zeroext %16, ptr noundef nonnull @evbuffer_deferred_callback, ptr noundef nonnull %0) #16
  %17 = load ptr, ptr %3, align 8
  %.not11 = icmp eq ptr %17, null
  br i1 %.not11, label %21, label %18

18:                                               ; preds = %8
  %19 = load ptr, ptr getelementptr inbounds nuw (i8, ptr @evthread_lock_fns_, i64 32), align 8
  %20 = tail call i32 %19(i32 noundef 0, ptr noundef nonnull %17) #16
  br label %21

21:                                               ; preds = %18, %8
  ret i32 0
}